; Function Attrs: mustprogress nounwind uwtable
define hidden void @_ZN9CodeCache16arm_all_nmethodsEv() local_unnamed_addr #1 align 2 {
  %1 = load ptr, ptr @_ZN10BarrierSet12_barrier_setE, align 8
  %2 = getelementptr inbounds i8, ptr %1, i64 48
  %3 = load ptr, ptr %2, align 8
  %.not = icmp eq ptr %3, null
  br i1 %.not, label %5, label %4

4:                                                ; preds = %0
  tail call void @_ZN17BarrierSetNMethod16arm_all_nmethodsEv(ptr noundef nonnull align 8 dereferenceable(12) %3) #20
  br label %5

5:                                                ; preds = %4, %0
  ret void
}